target datalayout = "e-m:e-p270:32:32-p271:32:32-p272:64:64-i64:64-i128:128-f80:128-n8:16:32:64-S128"
target triple = "x86_64-pc-linux-gnu"

%struct.DdManager = type { %struct.DdNode, ptr, ptr, ptr, ptr, ptr, ptr, ptr, i32, i32, double, double, double, i32, i32, i32, i32, i32, i32, ptr, ptr, %struct.DdSubtable, i32, i32, i32, i32, i32, i32, i32, double, i32, i32, i32, ptr, i64, double, i32, ptr, ptr, ptr, ptr, ptr, ptr, ptr, i32, ptr, ptr, ptr, ptr, ptr, ptr, i32, i32, i32, double, i32, i32, i32, i32, double, double, i32, i32, i32, i32, i32, i32, i32, i32, i32, ptr, ptr, i32, i32, i32, i32, i32, i32, ptr, ptr, ptr, ptr, ptr, ptr, ptr, ptr, i32, i64, i64, i64, i32, i64, i64, double, double, double, double, double, double, i32, ptr, ptr, i64 }
%struct.DdNode = type { i32, i32, ptr, %union.anon, i64 }
%union.anon = type { %struct.DdChildren }
%struct.DdChildren = type { ptr, ptr }
%struct.DdSubtable = type { ptr, i32, i32, i32, i32, i32, i32, i32, i32, i32, i32, i32 }

; Function Attrs: nounwind uwtable
define i32 @Cudd_DagSize(ptr noundef %0) #0 {
  %2 = alloca ptr, align 8
  %3 = alloca i32, align 4
  store ptr %0, ptr %2, align 8
  %4 = load ptr, ptr %2, align 8
  %5 = ptrtoint ptr %4 to i64
  %6 = and i64 %5, -2
  %7 = inttoptr i64 %6 to ptr
  %8 = call i32 @ddDagInt(ptr noundef %7)
  store i32 %8, ptr %3, align 4
  %9 = load ptr, ptr %2, align 8
  %10 = ptrtoint ptr %9 to i64
  %11 = and i64 %10, -2
  %12 = inttoptr i64 %11 to ptr
  call void @ddClearFlag(ptr noundef %12)
  %13 = load i32, ptr %3, align 4
  ret i32 %13
}

; Function Attrs: nounwind uwtable
define double @Cudd_Density(ptr noundef %0, ptr noundef %1, i32 noundef %2) #0 {
  %4 = alloca double, align 8
  %5 = alloca ptr, align 8
  %6 = alloca ptr, align 8
  %7 = alloca i32, align 4
  %8 = alloca double, align 8
  %9 = alloca i32, align 4
  %10 = alloca double, align 8
  store ptr %0, ptr %5, align 8
  store ptr %1, ptr %6, align 8
  store i32 %2, ptr %7, align 4
  %11 = load i32, ptr %7, align 4
  %12 = icmp eq i32 %11, 0
  br i1 %12, label %13, label %17

13:                                               ; preds = %3
  %14 = load ptr, ptr %5, align 8
  %15 = getelementptr inbounds %struct.DdManager, ptr %14, i32 0, i32 15
  %16 = load i32, ptr %15, align 8
  store i32 %16, ptr %7, align 4
  br label %17

17:                                               ; preds = %13, %3
  %18 = load ptr, ptr %5, align 8
  %19 = load ptr, ptr %6, align 8
  %20 = load i32, ptr %7, align 4
  %21 = call double @Cudd_CountMinterm(ptr noundef %18, ptr noundef %19, i32 noundef %20)
  store double %21, ptr %8, align 8
  %22 = load double, ptr %8, align 8
  %23 = fcmp oeq double %22, -1.000000e+00
  br i1 %23, label %24, label %26

24:                                               ; preds = %17
  %25 = load double, ptr %8, align 8
  store double %25, ptr %4, align 8
  br label %34

26:                                               ; preds = %17
  %27 = load ptr, ptr %6, align 8
  %28 = call i32 @Cudd_DagSize(ptr noundef %27)
  store i32 %28, ptr %9, align 4
  %29 = load double, ptr %8, align 8
  %30 = load i32, ptr %9, align 4
  %31 = sitofp i32 %30 to double
  %32 = fdiv double %29, %31
  store double %32, ptr %10, align 8
  %33 = load double, ptr %10, align 8
  store double %33, ptr %4, align 8
  br label %34

34:                                               ; preds = %26, %24
  %35 = load double, ptr %4, align 8
  ret double %35
}