; Function Attrs: nounwind uwtable
define double @Cudd_Density(ptr noundef %0, ptr noundef %1, i32 noundef %2) local_unnamed_addr #0 {
  %4 = icmp eq i32 %2, 0
  br i1 %4, label %5, label %8

5:                                                ; preds = %3
  %6 = getelementptr inbounds nuw i8, ptr %0, i64 136
  %7 = load i32, ptr %6, align 8
  br label %8

8:                                                ; preds = %5, %3
  %.011 = phi i32 [ %7, %5 ], [ %2, %3 ]
  %9 = tail call double @Cudd_CountMinterm(ptr noundef %0, ptr noundef %1, i32 noundef %.011)
  %10 = fcmp oeq double %9, -1.000000e+00
  br i1 %10, label %18, label %11

11:                                               ; preds = %8
  %12 = ptrtoint ptr %1 to i64
  %13 = and i64 %12, -2
  %14 = inttoptr i64 %13 to ptr
  %15 = tail call fastcc i32 @ddDagInt(ptr noundef %14)
  tail call fastcc void @ddClearFlag(ptr noundef %14)
  %16 = sitofp i32 %15 to double
  %17 = fdiv double %9, %16
  br label %18

18:                                               ; preds = %8, %11
  %.0 = phi double [ %17, %11 ], [ -1.000000e+00, %8 ]
  ret double %.0
}